target datalayout = "e-m:e-p270:32:32-p271:32:32-p272:64:64-i64:64-i128:128-f80:128-n8:16:32:64-S128"
target triple = "x86_64-pc-linux-gnu"

%struct.LoopState = type { ptr, ptr, i32 }
%struct.jit_State = type { %struct.GCtrace, ptr, ptr, ptr, ptr, ptr, ptr, i32, i32, i32, i8, i8, %struct.IRType1, i8, %struct.FoldState, ptr, i32, i32, i32, i32, i32, i32, i32, [1 x i32], [5 x %union.TValue], [3 x %union.TValue], ptr, i32, i32, i32, i32, ptr, ptr, i32, i32, i8, ptr, i32, i32, i16, [101 x i16], [258 x i32], [15 x i32], [16 x ptr], [64 x %struct.HotPenalty], i32, [16 x %struct.BPropEntry], i32, %struct.ScEvEntry, ptr, i32, i32, i32, ptr, i32, i32, ptr, ptr, ptr, i64, i64, %union.TValue, ptr, i32, i32 }
%struct.GCtrace = type { %struct.GCRef, i8, i8, i16, i32, i32, %struct.GCRef, ptr, i32, i32, ptr, ptr, %struct.GCRef, %struct.MRef, i32, i32, ptr, i32, i16, i16, i16, i16, i16, i16, i16, i8, i8, i8, i8 }
%struct.GCRef = type { i64 }
%struct.MRef = type { i64 }
%struct.IRType1 = type { i8 }
%struct.FoldState = type { %union.IRIns, [2 x %union.IRIns], [2 x %union.IRIns] }
%union.IRIns = type { %struct.GCRef }
%struct.HotPenalty = type { %struct.MRef, i16, i16 }
%struct.BPropEntry = type { i16, i16, i32 }
%struct.ScEvEntry = type { %struct.MRef, i16, i16, i16, i16, %struct.IRType1, i8 }
%union.TValue = type { i64 }
%struct.GG_State = type { %struct.lua_State, %struct.global_State, %struct.jit_State, [64 x i16], [243 x ptr], [57 x i32] }
%struct.lua_State = type { %struct.GCRef, i8, i8, i8, i8, %struct.MRef, %struct.GCRef, ptr, ptr, %struct.MRef, %struct.MRef, %struct.GCRef, %struct.GCRef, ptr, i32 }
%struct.global_State = type { ptr, ptr, %struct.GCState, %struct.GCstr, i8, i8, i8, i8, %struct.StrInternState, i32, %struct.GCRef, %struct.SBuf, %union.TValue, %union.TValue, %struct.Node, %union.TValue, %struct.GCupval, i32, i32, ptr, ptr, ptr, i32, i32, %struct.GCRef, %struct.MRef, %struct.MRef, %struct.PRNGState, [39 x %struct.GCRef] }
%struct.GCState = type { i64, i64, i8, i8, i8, i8, i32, %struct.GCRef, %struct.MRef, %struct.GCRef, %struct.GCRef, %struct.GCRef, %struct.GCRef, i64, i64, i32, i32, %struct.MRef }
%struct.GCstr = type { %struct.GCRef, i8, i8, i8, i8, i32, i32, i32 }
%struct.StrInternState = type { ptr, i32, i32, i32, i8, i8, i8, i8, i64 }
%struct.SBuf = type { ptr, ptr, ptr, %struct.MRef }
%struct.Node = type { %union.TValue, %union.TValue, %struct.MRef }
%struct.GCupval = type { %struct.GCRef, i8, i8, i8, i8, %union.anon, %struct.MRef, i32 }
%union.anon = type { %struct.anon.3 }
%struct.anon.3 = type { %struct.GCRef, %struct.GCRef }
%struct.PRNGState = type { [4 x i64] }

; Function Attrs: alwaysinline nounwind uwtable
define internal i32 @numberVint(ptr noundef %0) #3 {
  %2 = alloca ptr, align 8
  store ptr %0, ptr %2, align 8, !tbaa !59
  %3 = load ptr, ptr %2, align 8, !tbaa !59
  %4 = load double, ptr %3, align 8, !tbaa !42
  %5 = fptosi double %4 to i32
  ret i32 %5
}

; Function Attrs: alwaysinline nounwind uwtable
define internal void @lj_mem_free(ptr noundef %0, ptr noundef %1, i64 noundef %2) #3 {
  %4 = alloca ptr, align 8
  %5 = alloca ptr, align 8
  %6 = alloca i64, align 8
  store ptr %0, ptr %4, align 8, !tbaa !45
  store ptr %1, ptr %5, align 8, !tbaa !44
  store i64 %2, ptr %6, align 8, !tbaa !47
  %7 = load i64, ptr %6, align 8, !tbaa !47
  %8 = load ptr, ptr %4, align 8, !tbaa !45
  %9 = getelementptr inbounds nuw %struct.global_State, ptr %8, i32 0, i32 2
  %10 = getelementptr inbounds nuw %struct.GCState, ptr %9, i32 0, i32 0
  %11 = load i64, ptr %10, align 8, !tbaa !48
  %12 = sub i64 %11, %7
  store i64 %12, ptr %10, align 8, !tbaa !48
  %13 = load ptr, ptr %4, align 8, !tbaa !45
  %14 = getelementptr inbounds nuw %struct.global_State, ptr %13, i32 0, i32 0
  %15 = load ptr, ptr %14, align 8, !tbaa !57
  %16 = load ptr, ptr %4, align 8, !tbaa !45
  %17 = getelementptr inbounds nuw %struct.global_State, ptr %16, i32 0, i32 1
  %18 = load ptr, ptr %17, align 8, !tbaa !58
  %19 = load ptr, ptr %5, align 8, !tbaa !44
  %20 = load i64, ptr %6, align 8, !tbaa !47
  %21 = call ptr %15(ptr noundef %18, ptr noundef %19, i64 noundef %20, i64 noundef 0)
  ret void
}

; Function Attrs: nounwind uwtable
define hidden i32 @lj_opt_loop(ptr noundef %0) #0 {
  %2 = alloca i32, align 4
  %3 = alloca ptr, align 8
  %4 = alloca i32, align 4
  %5 = alloca i32, align 4
  %6 = alloca i32, align 4
  %7 = alloca %struct.LoopState, align 8
  %8 = alloca i32, align 4
  %9 = alloca ptr, align 8
  %10 = alloca i32, align 4
  %11 = alloca i32, align 4
  store ptr %0, ptr %3, align 8, !tbaa !4
  call void @llvm.lifetime.start.p0(i64 4, ptr %4) #7
  %12 = load ptr, ptr %3, align 8, !tbaa !4
  %13 = getelementptr inbounds nuw %struct.jit_State, ptr %12, i32 0, i32 0
  %14 = getelementptr inbounds nuw %struct.GCtrace, ptr %13, i32 0, i32 4
  %15 = load i32, ptr %14, align 4, !tbaa !9
  store i32 %15, ptr %4, align 4, !tbaa !29
  call void @llvm.lifetime.start.p0(i64 4, ptr %5) #7
  %16 = load ptr, ptr %3, align 8, !tbaa !4
  %17 = getelementptr inbounds nuw %struct.jit_State, ptr %16, i32 0, i32 0
  %18 = getelementptr inbounds nuw %struct.GCtrace, ptr %17, i32 0, i32 3
  %19 = load i16, ptr %18, align 2, !tbaa !30
  %20 = zext i16 %19 to i32
  store i32 %20, ptr %5, align 4, !tbaa !29
  call void @llvm.lifetime.start.p0(i64 4, ptr %6) #7
  %21 = load ptr, ptr %3, align 8, !tbaa !4
  %22 = getelementptr inbounds nuw %struct.jit_State, ptr %21, i32 0, i32 0
  %23 = getelementptr inbounds nuw %struct.GCtrace, ptr %22, i32 0, i32 9
  %24 = load i32, ptr %23, align 4, !tbaa !31
  store i32 %24, ptr %6, align 4, !tbaa !29
  call void @llvm.lifetime.start.p0(i64 24, ptr %7) #7
  call void @llvm.lifetime.start.p0(i64 4, ptr %8) #7
  %25 = load ptr, ptr %3, align 8, !tbaa !4
  %26 = getelementptr inbounds nuw %struct.LoopState, ptr %7, i32 0, i32 0
  store ptr %25, ptr %26, align 8, !tbaa !32
  %27 = getelementptr inbounds nuw %struct.LoopState, ptr %7, i32 0, i32 1
  store ptr null, ptr %27, align 8, !tbaa !35
  %28 = getelementptr inbounds nuw %struct.LoopState, ptr %7, i32 0, i32 2
  store i32 0, ptr %28, align 8, !tbaa !36
  %29 = load ptr, ptr %3, align 8, !tbaa !4
  %30 = getelementptr inbounds nuw %struct.jit_State, ptr %29, i32 0, i32 2
  %31 = load ptr, ptr %30, align 8, !tbaa !37
  %32 = call i32 @lj_vm_cpcall(ptr noundef %31, ptr noundef null, ptr noundef %7, ptr noundef @cploop_opt)
  store i32 %32, ptr %8, align 4, !tbaa !29
  %33 = load ptr, ptr %3, align 8, !tbaa !4
  %34 = getelementptr inbounds i8, ptr %33, i64 -832
  %35 = getelementptr inbounds nuw %struct.GG_State, ptr %34, i32 0, i32 1
  %36 = getelementptr inbounds nuw %struct.LoopState, ptr %7, i32 0, i32 1
  %37 = load ptr, ptr %36, align 8, !tbaa !35
  %38 = getelementptr inbounds nuw %struct.LoopState, ptr %7, i32 0, i32 2
  %39 = load i32, ptr %38, align 8, !tbaa !36
  %40 = zext i32 %39 to i64
  %41 = mul i64 %40, 2
  call void @lj_mem_free(ptr noundef %35, ptr noundef %37, i64 noundef %41)
  %42 = load i32, ptr %8, align 4, !tbaa !29
  %43 = icmp ne i32 %42, 0
  %44 = xor i1 %43, true
  %45 = xor i1 %44, true
  %46 = zext i1 %45 to i32
  %47 = sext i32 %46 to i64
  %48 = call i64 @llvm.expect.i64(i64 %47, i64 0)
  %49 = icmp ne i64 %48, 0
  br i1 %49, label %50, label %97

50:                                               ; preds = %1
  call void @llvm.lifetime.start.p0(i64 8, ptr %9) #7
  %51 = load ptr, ptr %3, align 8, !tbaa !4
  %52 = getelementptr inbounds nuw %struct.jit_State, ptr %51, i32 0, i32 2
  %53 = load ptr, ptr %52, align 8, !tbaa !37
  store ptr %53, ptr %9, align 8, !tbaa !38
  %54 = load i32, ptr %8, align 4, !tbaa !29
  %55 = icmp eq i32 %54, 2
  br i1 %55, label %56, label %93

56:                                               ; preds = %50
  %57 = load ptr, ptr %9, align 8, !tbaa !38
  %58 = getelementptr inbounds nuw %struct.lua_State, ptr %57, i32 0, i32 8
  %59 = load ptr, ptr %58, align 8, !tbaa !39
  %60 = getelementptr inbounds %union.TValue, ptr %59, i64 -1
  %61 = load i64, ptr %60, align 8, !tbaa !42
  %62 = ashr i64 %61, 47
  %63 = trunc i64 %62 to i32
  %64 = icmp ule i32 %63, -14
  br i1 %64, label %65, label %93

65:                                               ; preds = %56
  call void @llvm.lifetime.start.p0(i64 4, ptr %10) #7
  %66 = load ptr, ptr %9, align 8, !tbaa !38
  %67 = getelementptr inbounds nuw %struct.lua_State, ptr %66, i32 0, i32 8
  %68 = load ptr, ptr %67, align 8, !tbaa !39
  %69 = getelementptr inbounds %union.TValue, ptr %68, i64 -1
  %70 = call i32 @numberVint(ptr noundef %69)
  store i32 %70, ptr %10, align 4, !tbaa !29
  %71 = load i32, ptr %10, align 4, !tbaa !29
  switch i32 %71, label %88 [
    i32 26, label %72
    i32 24, label %72
  ]

72:                                               ; preds = %65, %65
  %73 = load ptr, ptr %3, align 8, !tbaa !4
  %74 = getelementptr inbounds nuw %struct.jit_State, ptr %73, i32 0, i32 18
  %75 = load i32, ptr %74, align 8, !tbaa !43
  %76 = add nsw i32 %75, -1
  store i32 %76, ptr %74, align 8, !tbaa !43
  %77 = icmp slt i32 %76, 0
  br i1 %77, label %78, label %79

78:                                               ; preds = %72
  br label %89

79:                                               ; preds = %72
  %80 = load ptr, ptr %9, align 8, !tbaa !38
  %81 = getelementptr inbounds nuw %struct.lua_State, ptr %80, i32 0, i32 8
  %82 = load ptr, ptr %81, align 8, !tbaa !39
  %83 = getelementptr inbounds %union.TValue, ptr %82, i32 -1
  store ptr %83, ptr %81, align 8, !tbaa !39
  %84 = load ptr, ptr %3, align 8, !tbaa !4
  %85 = load i32, ptr %4, align 4, !tbaa !29
  %86 = load i32, ptr %5, align 4, !tbaa !29
  %87 = load i32, ptr %6, align 4, !tbaa !29
  call void @loop_undo(ptr noundef %84, i32 noundef %85, i32 noundef %86, i32 noundef %87)
  store i32 1, ptr %2, align 4
  store i32 1, ptr %11, align 4
  br label %90

88:                                               ; preds = %65
  br label %89

89:                                               ; preds = %88, %78
  store i32 0, ptr %11, align 4
  br label %90

90:                                               ; preds = %89, %79
  call void @llvm.lifetime.end.p0(i64 4, ptr %10) #7
  %91 = load i32, ptr %11, align 4
  switch i32 %91, label %96 [
    i32 0, label %92
  ]

92:                                               ; preds = %90
  br label %93

93:                                               ; preds = %92, %56, %50
  %94 = load ptr, ptr %9, align 8, !tbaa !38
  %95 = load i32, ptr %8, align 4, !tbaa !29
  call void @lj_err_throw(ptr noundef %94, i32 noundef %95) #8
  unreachable

96:                                               ; preds = %90
  call void @llvm.lifetime.end.p0(i64 8, ptr %9) #7
  br label %98

97:                                               ; preds = %1
  store i32 0, ptr %2, align 4
  store i32 1, ptr %11, align 4
  br label %98

98:                                               ; preds = %97, %96
  call void @llvm.lifetime.end.p0(i64 4, ptr %8) #7
  call void @llvm.lifetime.end.p0(i64 24, ptr %7) #7
  call void @llvm.lifetime.end.p0(i64 4, ptr %6) #7
  call void @llvm.lifetime.end.p0(i64 4, ptr %5) #7
  call void @llvm.lifetime.end.p0(i64 4, ptr %4) #7
  %99 = load i32, ptr %2, align 4
  ret i32 %99
}