; Function Attrs: nounwind uwtable
define hidden range(i32 0, 2) i32 @lj_opt_loop(ptr noundef %0) local_unnamed_addr #0 {
  %2 = alloca %struct.LoopState, align 8
  %3 = getelementptr inbounds nuw i8, ptr %0, i64 12
  %4 = load i32, ptr %3, align 4, !tbaa !4
  %5 = getelementptr inbounds nuw i8, ptr %0, i64 10
  %6 = load i16, ptr %5, align 2, !tbaa !27
  %7 = zext i16 %6 to i32
  %8 = getelementptr inbounds nuw i8, ptr %0, i64 44
  %9 = load i32, ptr %8, align 4, !tbaa !28
  call void @llvm.lifetime.start.p0(i64 24, ptr nonnull %2) #4
  store ptr %0, ptr %2, align 8, !tbaa !29
  %10 = getelementptr inbounds nuw i8, ptr %2, i64 8
  store ptr null, ptr %10, align 8, !tbaa !33
  %11 = getelementptr inbounds nuw i8, ptr %2, i64 16
  store i32 0, ptr %11, align 8, !tbaa !34
  %12 = getelementptr inbounds nuw i8, ptr %0, i64 128
  %13 = load ptr, ptr %12, align 8, !tbaa !35
  %14 = call i32 @lj_vm_cpcall(ptr noundef %13, ptr noundef null, ptr noundef nonnull %2, ptr noundef nonnull @cploop_opt) #4
  %15 = getelementptr inbounds i8, ptr %0, i64 -736
  %16 = load ptr, ptr %10, align 8, !tbaa !33
  %17 = load i32, ptr %11, align 8, !tbaa !34
  %18 = zext i32 %17 to i64
  %19 = shl nuw nsw i64 %18, 1
  %20 = getelementptr inbounds i8, ptr %0, i64 -720
  %21 = load i64, ptr %20, align 8, !tbaa !36
  %22 = sub i64 %21, %19
  store i64 %22, ptr %20, align 8, !tbaa !36
  %23 = load ptr, ptr %15, align 8, !tbaa !45
  %24 = getelementptr inbounds i8, ptr %0, i64 -728
  %25 = load ptr, ptr %24, align 8, !tbaa !46
  %26 = call ptr %23(ptr noundef %25, ptr noundef %16, i64 noundef range(i64 0, 8589934591) %19, i64 noundef 0) #4
  %.not = icmp eq i32 %14, 0
  br i1 %.not, label %45, label %27, !prof !47

27:                                               ; preds = %1
  %28 = load ptr, ptr %12, align 8, !tbaa !35
  %29 = icmp eq i32 %14, 2
  br i1 %29, label %30, label %44

30:                                               ; preds = %27
  %31 = getelementptr inbounds nuw i8, ptr %28, i64 40
  %32 = load ptr, ptr %31, align 8, !tbaa !48
  %33 = getelementptr inbounds i8, ptr %32, i64 -8
  %34 = load i64, ptr %33, align 8
  %35 = icmp ult i64 %34, -1829587348619264
  br i1 %35, label %36, label %44

36:                                               ; preds = %30
  %37 = bitcast i64 %34 to double
  %38 = fptosi double %37 to i32
  switch i32 %38, label %44 [
    i32 26, label %39
    i32 24, label %39
  ]

39:                                               ; preds = %36, %36
  %40 = getelementptr inbounds nuw i8, ptr %0, i64 240
  %41 = load i32, ptr %40, align 8, !tbaa !51
  %42 = add nsw i32 %41, -1
  store i32 %42, ptr %40, align 8, !tbaa !51
  %43 = icmp slt i32 %41, 1
  br i1 %43, label %44, label %.critedge

.critedge:                                        ; preds = %39
  store ptr %33, ptr %31, align 8, !tbaa !48
  call fastcc void @loop_undo(ptr noundef nonnull %0, i32 noundef %4, i32 noundef %7, i32 noundef %9)
  br label %45

44:                                               ; preds = %36, %39, %30, %27
  call void @lj_err_throw(ptr noundef %28, i32 noundef %14) #5
  unreachable

45:                                               ; preds = %1, %.critedge
  %.1 = phi i32 [ 1, %.critedge ], [ 0, %1 ]
  call void @llvm.lifetime.end.p0(i64 24, ptr nonnull %2) #4
  ret i32 %.1
}